Certificate:
    Data:
        Version: 3 (0x2)
        Serial Number:
            fe:b0:da:6b:79:da:3d:ad
    Signature Algorithm: sha256WithRSAEncryption
        Issuer: C = FR, ST = IDF, L = Paris, O = NodeOPCUA, CN = NodeOPCUA-TEST
        Validity
            Not Before: Jun 28 15:19:49 2018 GMT
            Not After : Jun 24 15:19:49 2033 GMT
        Subject: C = FR, ST = IDF, L = Paris, O = NodeOPCUA, CN = NodeOPCUA-TEST
        Subject Public Key Info:
            Public Key Algorithm: rsaEncryption
                Public-Key: (2048 bit)
                Modulus:
                    00:c1:26:e1:de:aa:b1:b7:16:6d:f1:15:0f:11:7f:
                    2f:84:4e:23:86:bd:90:21:95:9d:62:65:19:5c:50:
                    cd:fb:28:c8:b5:f0:62:7c:89:dd:47:5f:c3:49:93:
                    65:79:8d:47:da:63:b6:6e:2f:39:25:58:9b:cc:8d:
                    0a:32:82:79:e8:c4:ef:d8:e9:f4:06:bd:79:a6:95:
                    3d:46:fc:2b:aa:08:5b:34:59:ad:14:34:78:ff:2e:
                    da:f5:3b:9d:8f:5f:f1:c1:cd:27:51:d1:cb:44:2f:
                    df:d5:4f:8b:72:1b:1e:1a:82:86:0c:3a:b8:34:ac:
                    31:33:e6:a8:f7:7d:49:cc:9f:b5:8c:ac:fa:89:08:
                    be:1c:c2:1a:b6:2a:d6:50:5d:b0:29:62:59:06:d6:
                    38:96:11:f6:ba:2d:67:2f:b7:e7:01:63:64:fa:36:
                    7f:1c:ac:f3:52:c1:33:ab:11:4b:9a:b8:86:3a:46:
                    aa:f6:17:b5:40:79:84:f4:14:be:fb:13:d5:cc:e3:
                    24:a6:32:f6:bc:79:16:b4:6f:62:cc:e4:4b:96:f3:
                    7b:9c:9b:3f:97:9b:7f:15:f0:7d:8f:17:a8:74:3a:
                    b8:aa:2c:41:f5:6d:28:68:d1:a8:d5:cc:97:a2:c3:
                    81:53:86:9e:d8:d4:20:f5:3e:17:e8:be:e6:76:13:
                    c7:97
                Exponent: 65537 (0x10001)
        X509v3 extensions:
            X509v3 Subject Key Identifier: 
                B1:AD:C3:E6:C8:D8:C5:3F:30:C9:44:37:13:92:FD:32:1A:99:94:EE
            X509v3 Authority Key Identifier: 
                keyid:B1:AD:C3:E6:C8:D8:C5:3F:30:C9:44:37:13:92:FD:32:1A:99:94:EE
                DirName:/C=FR/ST=IDF/L=Paris/O=NodeOPCUA/CN=NodeOPCUA-TEST
                serial:FE:B0:DA:6B:79:DA:3D:AD

            X509v3 Basic Constraints: 
                CA:TRUE
            X509v3 Key Usage: critical
                Certificate Sign, CRL Sign
            Netscape Comment: 
                SelfSigned Certificate generated by Node-OPCUA Certificate utility using openssl
            X509v3 Subject Alternative Name: 
                URI:urn:mAbSim:Node-OPCUA-Server, DNS:mAbSim
    Signature Algorithm: sha256WithRSAEncryption
         28:70:ea:21:9d:26:5b:cd:89:fc:af:d6:4a:7e:fb:96:c4:38:
         c3:2b:43:97:86:a6:77:ac:44:6c:66:e7:6f:c5:e1:68:8e:53:
         b6:80:bf:04:44:b2:f0:c6:59:c3:0c:42:35:b4:3c:71:d7:76:
         b1:c6:67:0f:2d:37:3f:51:1f:7b:0e:0a:8d:f8:b2:88:b3:80:
         be:fd:46:15:b0:5c:4c:fa:c2:96:62:07:95:3b:30:a8:2e:3c:
         e8:a7:9a:9c:0b:5b:5d:53:f1:28:93:f3:ae:82:00:bf:81:37:
         2b:d5:b2:85:8c:ca:20:67:bd:57:39:eb:4c:11:ac:70:81:95:
         53:c7:cd:e1:1a:14:dd:92:79:b0:54:ba:80:5a:85:d4:a4:fc:
         fa:c4:7b:5b:56:7a:63:3c:b1:50:83:59:18:04:0a:fa:9c:c7:
         63:7d:69:6f:59:7f:a1:63:27:13:96:48:01:71:29:ba:bf:6f:
         da:13:b2:b8:72:9c:92:11:cc:fc:ba:c1:af:2d:3b:37:b3:ab:
         12:f6:84:5c:cf:c2:e3:95:28:62:49:ce:85:62:de:36:32:32:
         23:fb:93:07:97:d1:b0:4d:91:27:98:ec:0b:b5:c8:5c:24:4a:
         fe:1d:1c:f1:41:87:61:44:70:7a:7d:d9:0b:2f:3c:96:a6:05:
         df:a7:81:0b
-----BEGIN CERTIFICATE-----
MIIElDCCA3ygAwIBAgIJAP6w2mt52j2tMA0GCSqGSIb3DQEBCwUAMFgxCzAJBgNV
BAYTAkZSMQwwCgYDVQQIDANJREYxDjAMBgNVBAcMBVBhcmlzMRIwEAYDVQQKDAlO
b2RlT1BDVUExFzAVBgNVBAMMDk5vZGVPUENVQS1URVNUMB4XDTE4MDYyODE1MTk0
OVoXDTMzMDYyNDE1MTk0OVowWDELMAkGA1UEBhMCRlIxDDAKBgNVBAgMA0lERjEO
MAwGA1UEBwwFUGFyaXMxEjAQBgNVBAoMCU5vZGVPUENVQTEXMBUGA1UEAwwOTm9k
ZU9QQ1VBLVRFU1QwggEiMA0GCSqGSIb3DQEBAQUAA4IBDwAwggEKAoIBAQDBJuHe
qrG3Fm3xFQ8Rfy+ETiOGvZAhlZ1iZRlcUM37KMi18GJ8id1HX8NJk2V5jUfaY7Zu
LzklWJvMjQoygnnoxO/Y6fQGvXmmlT1G/CuqCFs0Wa0UNHj/Ltr1O52PX/HBzSdR
0ctEL9/VT4tyGx4agoYMOrg0rDEz5qj3fUnMn7WMrPqJCL4cwhq2KtZQXbApYlkG
1jiWEfa6LWcvt+cBY2T6Nn8crPNSwTOrEUuauIY6Rqr2F7VAeYT0FL77E9XM4ySm
Mva8eRa0b2LM5EuW83ucmz+Xm38V8H2PF6h0OriqLEH1bSho0ajVzJeiw4FThp7Y
1CD1PhfovuZ2E8eXAgMBAAGjggFfMIIBWzAdBgNVHQ4EFgQUsa3D5sjYxT8wyUQ3
E5L9MhqZlO4wgYkGA1UdIwSBgTB/gBSxrcPmyNjFPzDJRDcTkv0yGpmU7qFcpFow
WDELMAkGA1UEBhMCRlIxDDAKBgNVBAgMA0lERjEOMAwGA1UEBwwFUGFyaXMxEjAQ
BgNVBAoMCU5vZGVPUENVQTEXMBUGA1UEAwwOTm9kZU9QQ1VBLVRFU1SCCQD+sNpr
edo9rTAMBgNVHRMEBTADAQH/MA4GA1UdDwEB/wQEAwIBBjBfBglghkgBhvhCAQ0E
UhZQU2VsZlNpZ25lZCBDZXJ0aWZpY2F0ZSBnZW5lcmF0ZWQgYnkgTm9kZS1PUENV
QSBDZXJ0aWZpY2F0ZSB1dGlsaXR5IHVzaW5nIG9wZW5zc2wwLwYDVR0RBCgwJoYc
dXJuOm1BYlNpbTpOb2RlLU9QQ1VBLVNlcnZlcoIGbUFiU2ltMA0GCSqGSIb3DQEB
CwUAA4IBAQAocOohnSZbzYn8r9ZKfvuWxDjDK0OXhqZ3rERsZudvxeFojlO2gL8E
RLLwxlnDDEI1tDxx13axxmcPLTc/UR97DgqN+LKIs4C+/UYVsFxM+sKWYgeVOzCo
Ljzop5qcC1tdU/Eok/OuggC/gTcr1bKFjMogZ71XOetMEaxwgZVTx83hGhTdknmw
VLqAWoXUpPz6xHtbVnpjPLFQg1kYBAr6nMdjfWlvWX+hYycTlkgBcSm6v2/aE7K4
cpySEcz8usGvLTs3s6sS9oRcz8LjlShiSc6FYt42MjIj+5MHl9GwTZEnmOwLtchc
JEr+HRzxQYdhRHB6fdkLLzyWpgXfp4EL
-----END CERTIFICATE-----
