Certificate:
    Data:
        Version: 3 (0x2)
        Serial Number:
            9b:1f:cb:0a:04:dc:91:0e
    Signature Algorithm: sha256WithRSAEncryption
        Issuer: C = FR, ST = IDF, L = Paris, O = NodeOPCUA, CN = NodeOPCUA-TEST
        Validity
            Not Before: Jun 28 15:19:47 2018 GMT
            Not After : Jun 24 15:19:47 2033 GMT
        Subject: C = FR, ST = IDF, L = Paris, O = NodeOPCUA, CN = NodeOPCUA-TEST
        Subject Public Key Info:
            Public Key Algorithm: rsaEncryption
                Public-Key: (2048 bit)
                Modulus:
                    00:9d:da:20:72:13:ce:d1:1f:28:38:7a:c4:e3:32:
                    af:06:c9:35:48:18:e5:35:6f:c7:7d:a5:7e:89:bf:
                    d4:5f:1f:dd:cc:3b:ca:a8:fd:55:15:5b:c7:83:f7:
                    7b:b6:76:5f:04:8d:14:e0:ac:a4:fa:fa:12:a7:a6:
                    a7:2d:f8:ca:6f:6a:f0:be:7b:19:67:38:35:33:06:
                    b5:03:2d:d6:fa:16:6d:52:bd:fd:d3:f2:4b:4f:b8:
                    f7:9d:d3:ba:7a:ae:32:7f:dc:fd:23:53:6c:a6:07:
                    f5:c9:61:86:af:e9:41:6a:53:d0:03:cd:d3:c2:e1:
                    9e:b4:08:cd:84:46:4e:9a:be:f6:2d:38:8a:a3:03:
                    ae:2e:fe:40:22:92:3f:27:07:19:0a:8b:f3:0a:45:
                    9d:6d:c0:8d:24:07:55:37:0b:3c:25:da:35:e7:66:
                    ad:c7:c4:22:ab:b6:e7:4f:14:76:c5:a1:a6:4b:b9:
                    49:fe:d9:d0:d0:4b:0a:60:72:75:53:0d:33:86:d2:
                    40:3d:b1:87:b9:7e:b2:a8:e6:e5:f0:70:db:7d:df:
                    a6:74:96:42:f1:74:fd:67:b6:68:9a:87:fd:35:a7:
                    39:e4:57:07:a9:d8:3f:02:12:df:25:a8:ae:5c:2c:
                    1e:aa:91:94:11:66:0a:2d:f5:27:90:2d:80:78:06:
                    cc:3f
                Exponent: 65537 (0x10001)
        X509v3 extensions:
            X509v3 Subject Key Identifier: 
                32:B9:05:E0:FD:04:E1:88:FE:F8:03:F8:BF:52:EC:CF:B7:87:D1:06
            X509v3 Authority Key Identifier: 
                keyid:32:B9:05:E0:FD:04:E1:88:FE:F8:03:F8:BF:52:EC:CF:B7:87:D1:06
                DirName:/C=FR/ST=IDF/L=Paris/O=NodeOPCUA/CN=NodeOPCUA-TEST
                serial:9B:1F:CB:0A:04:DC:91:0E

            X509v3 Basic Constraints: 
                CA:TRUE
            X509v3 Key Usage: critical
                Certificate Sign, CRL Sign
            Netscape Comment: 
                SelfSigned Certificate generated by Node-OPCUA Certificate utility using openssl
            X509v3 Subject Alternative Name: 
                URI:urn:mAbSim:Node-OPCUA-Server, DNS:mAbSim
    Signature Algorithm: sha256WithRSAEncryption
         44:3c:ef:41:03:35:5c:82:84:e0:c8:60:35:17:9e:a0:94:92:
         92:02:fd:1d:e3:6a:85:3e:e9:94:3c:0e:8b:92:3b:40:57:05:
         ea:7a:0f:d6:00:84:13:0d:35:92:10:ab:c7:39:11:a4:3c:60:
         04:e5:ee:40:66:2b:ef:4f:c1:e1:22:64:b0:56:cd:2e:a7:81:
         1f:82:c4:3e:f1:a8:8f:07:43:6f:3c:34:1e:88:1f:9a:bd:5b:
         f1:ad:2b:f0:52:76:aa:eb:fe:65:6c:72:08:0c:6f:a4:54:11:
         e7:64:d9:28:fe:32:e6:0d:40:08:75:5f:c4:e3:a8:cd:98:6c:
         b0:d4:92:c1:14:bf:d4:3c:97:fb:02:83:39:c8:a5:55:48:69:
         ee:51:13:4a:95:10:32:7a:63:3e:6a:98:80:aa:03:15:24:b4:
         06:e9:d8:b4:75:00:88:c1:a1:f5:2b:bd:b0:3d:b6:f8:ee:54:
         ab:8c:be:dd:83:3a:e8:15:21:10:d0:ad:c2:f6:cf:04:82:ee:
         7b:56:8a:4c:7d:4a:86:ba:f1:31:3f:67:43:19:1c:60:d2:48:
         43:81:e3:ea:11:5d:68:09:1c:cd:32:a4:ea:fb:51:07:9d:6a:
         c9:99:8d:b0:98:6f:8d:88:02:4c:3f:34:01:31:36:94:30:2a:
         3c:e5:89:31
-----BEGIN CERTIFICATE-----
MIIElDCCA3ygAwIBAgIJAJsfywoE3JEOMA0GCSqGSIb3DQEBCwUAMFgxCzAJBgNV
BAYTAkZSMQwwCgYDVQQIDANJREYxDjAMBgNVBAcMBVBhcmlzMRIwEAYDVQQKDAlO
b2RlT1BDVUExFzAVBgNVBAMMDk5vZGVPUENVQS1URVNUMB4XDTE4MDYyODE1MTk0
N1oXDTMzMDYyNDE1MTk0N1owWDELMAkGA1UEBhMCRlIxDDAKBgNVBAgMA0lERjEO
MAwGA1UEBwwFUGFyaXMxEjAQBgNVBAoMCU5vZGVPUENVQTEXMBUGA1UEAwwOTm9k
ZU9QQ1VBLVRFU1QwggEiMA0GCSqGSIb3DQEBAQUAA4IBDwAwggEKAoIBAQCd2iBy
E87RHyg4esTjMq8GyTVIGOU1b8d9pX6Jv9RfH93MO8qo/VUVW8eD93u2dl8EjRTg
rKT6+hKnpqct+MpvavC+exlnODUzBrUDLdb6Fm1Svf3T8ktPuPed07p6rjJ/3P0j
U2ymB/XJYYav6UFqU9ADzdPC4Z60CM2ERk6avvYtOIqjA64u/kAikj8nBxkKi/MK
RZ1twI0kB1U3Czwl2jXnZq3HxCKrtudPFHbFoaZLuUn+2dDQSwpgcnVTDTOG0kA9
sYe5frKo5uXwcNt936Z0lkLxdP1ntmiah/01pznkVwep2D8CEt8lqK5cLB6qkZQR
Zgot9SeQLYB4Bsw/AgMBAAGjggFfMIIBWzAdBgNVHQ4EFgQUMrkF4P0E4Yj++AP4
v1Lsz7eH0QYwgYkGA1UdIwSBgTB/gBQyuQXg/QThiP74A/i/UuzPt4fRBqFcpFow
WDELMAkGA1UEBhMCRlIxDDAKBgNVBAgMA0lERjEOMAwGA1UEBwwFUGFyaXMxEjAQ
BgNVBAoMCU5vZGVPUENVQTEXMBUGA1UEAwwOTm9kZU9QQ1VBLVRFU1SCCQCbH8sK
BNyRDjAMBgNVHRMEBTADAQH/MA4GA1UdDwEB/wQEAwIBBjBfBglghkgBhvhCAQ0E
UhZQU2VsZlNpZ25lZCBDZXJ0aWZpY2F0ZSBnZW5lcmF0ZWQgYnkgTm9kZS1PUENV
QSBDZXJ0aWZpY2F0ZSB1dGlsaXR5IHVzaW5nIG9wZW5zc2wwLwYDVR0RBCgwJoYc
dXJuOm1BYlNpbTpOb2RlLU9QQ1VBLVNlcnZlcoIGbUFiU2ltMA0GCSqGSIb3DQEB
CwUAA4IBAQBEPO9BAzVcgoTgyGA1F56glJKSAv0d42qFPumUPA6LkjtAVwXqeg/W
AIQTDTWSEKvHORGkPGAE5e5AZivvT8HhImSwVs0up4EfgsQ+8aiPB0NvPDQeiB+a
vVvxrSvwUnaq6/5lbHIIDG+kVBHnZNko/jLmDUAIdV/E46jNmGyw1JLBFL/UPJf7
AoM5yKVVSGnuURNKlRAyemM+apiAqgMVJLQG6di0dQCIwaH1K72wPbb47lSrjL7d
gzroFSEQ0K3C9s8Egu57VopMfUqGuvExP2dDGRxg0khDgePqEV1oCRzNMqTq+1EH
nWrJmY2wmG+NiAJMPzQBMTaUMCo85Ykx
-----END CERTIFICATE-----
