Certificate:
    Data:
        Version: 3 (0x2)
        Serial Number:
            f1:89:39:69:50:1f:7a:6c
    Signature Algorithm: sha256WithRSAEncryption
        Issuer: C = FR, ST = IDF, L = Paris, O = NodeOPCUA, CN = NodeOPCUA-TEST
        Validity
            Not Before: Jun 28 15:19:45 2018 GMT
            Not After : Jun 24 15:19:45 2033 GMT
        Subject: C = FR, ST = IDF, L = Paris, O = NodeOPCUA, CN = NodeOPCUA-TEST
        Subject Public Key Info:
            Public Key Algorithm: rsaEncryption
                Public-Key: (2048 bit)
                Modulus:
                    00:c6:e3:37:43:a2:f1:36:98:48:dd:f2:ff:b9:46:
                    5c:78:37:8a:9b:bb:f0:44:bd:e8:3a:ed:9f:65:11:
                    ae:72:ae:77:f3:90:c1:47:57:53:d2:19:93:e4:02:
                    fe:00:2e:6f:77:a7:1f:83:f0:cc:7f:9d:b9:4c:db:
                    20:f2:5a:70:45:b0:b3:4d:eb:18:80:6d:c0:c2:b4:
                    22:40:6b:82:4e:37:01:74:9f:94:92:a0:4a:e4:f9:
                    b9:41:36:6b:85:1b:e9:e4:3a:0c:f6:6b:0f:47:3c:
                    54:f8:8e:61:89:45:d3:43:d0:54:d7:53:e7:7b:52:
                    85:35:90:c4:31:0d:bc:04:af:59:17:fe:73:8b:4f:
                    70:a3:f8:a0:fd:d3:da:5e:dc:c2:ee:fd:8a:dc:21:
                    eb:82:fc:16:90:6b:b7:2a:6d:19:dc:7d:5f:ea:0b:
                    87:ed:8a:b6:12:59:27:76:2b:f8:99:a0:9a:ed:df:
                    88:63:0b:3f:57:da:72:33:97:72:26:86:21:74:db:
                    a0:06:77:8a:1d:51:dc:c1:02:1e:2b:83:e2:68:c2:
                    98:2a:c2:c1:37:1c:61:3f:3e:eb:af:0f:f9:09:a6:
                    01:e2:c7:0a:25:fc:ad:8d:81:23:eb:49:2b:ae:46:
                    9f:4b:da:3e:66:d2:1c:bb:d2:c0:d4:6d:3f:e8:28:
                    82:9d
                Exponent: 65537 (0x10001)
        X509v3 extensions:
            X509v3 Subject Key Identifier: 
                C5:E7:81:27:81:E9:DE:2B:79:06:A7:02:B5:22:51:F5:BE:21:9D:ED
            X509v3 Authority Key Identifier: 
                keyid:C5:E7:81:27:81:E9:DE:2B:79:06:A7:02:B5:22:51:F5:BE:21:9D:ED
                DirName:/C=FR/ST=IDF/L=Paris/O=NodeOPCUA/CN=NodeOPCUA-TEST
                serial:F1:89:39:69:50:1F:7A:6C

            X509v3 Basic Constraints: 
                CA:TRUE
            X509v3 Key Usage: critical
                Certificate Sign, CRL Sign
            Netscape Comment: 
                SelfSigned Certificate generated by Node-OPCUA Certificate utility using openssl
            X509v3 Subject Alternative Name: 
                URI:urn:mAbSim:Node-OPCUA-Server, DNS:mAbSim
    Signature Algorithm: sha256WithRSAEncryption
         4b:d6:e6:2b:79:5c:19:36:2e:a7:93:2e:1c:e2:ee:8a:5e:56:
         72:5a:27:81:4d:1e:2e:04:11:5e:ff:81:38:e9:82:2b:41:9b:
         99:87:9e:e8:88:18:82:d4:b9:45:57:7c:46:de:0e:de:20:7d:
         d0:c6:ee:0b:9b:bf:e9:5d:1b:68:7f:49:97:18:b2:32:d2:67:
         5b:b2:11:02:e3:4a:b4:6f:a3:b1:2c:e6:95:08:04:d4:db:80:
         69:e7:1e:33:9f:42:93:af:80:ab:61:a5:be:f8:0e:0f:8b:95:
         d6:27:2a:b5:8b:52:c8:76:2c:26:01:50:30:70:a0:ae:49:7b:
         e6:72:f4:ed:36:09:9b:ae:f0:14:dc:1b:20:44:87:25:fe:4e:
         a2:d1:1a:56:ce:1e:aa:82:fd:e9:81:24:32:de:dc:56:69:bf:
         90:86:af:10:12:f5:cb:4b:97:a4:12:6f:fa:83:5e:72:4f:65:
         3c:bc:e5:e0:62:c0:75:34:bd:e2:40:db:9e:8c:7c:0c:72:ed:
         37:9e:2b:a2:29:d1:82:3b:1a:b7:da:85:b2:cd:48:ae:07:74:
         85:56:aa:5f:86:a2:5a:12:a2:3f:1e:12:0f:3b:0c:9f:42:e8:
         e3:7f:62:82:5b:3f:2e:20:cb:1a:b3:1d:f6:70:44:e5:35:db:
         8f:88:90:f2
-----BEGIN CERTIFICATE-----
MIIElDCCA3ygAwIBAgIJAPGJOWlQH3psMA0GCSqGSIb3DQEBCwUAMFgxCzAJBgNV
BAYTAkZSMQwwCgYDVQQIDANJREYxDjAMBgNVBAcMBVBhcmlzMRIwEAYDVQQKDAlO
b2RlT1BDVUExFzAVBgNVBAMMDk5vZGVPUENVQS1URVNUMB4XDTE4MDYyODE1MTk0
NVoXDTMzMDYyNDE1MTk0NVowWDELMAkGA1UEBhMCRlIxDDAKBgNVBAgMA0lERjEO
MAwGA1UEBwwFUGFyaXMxEjAQBgNVBAoMCU5vZGVPUENVQTEXMBUGA1UEAwwOTm9k
ZU9QQ1VBLVRFU1QwggEiMA0GCSqGSIb3DQEBAQUAA4IBDwAwggEKAoIBAQDG4zdD
ovE2mEjd8v+5Rlx4N4qbu/BEveg67Z9lEa5yrnfzkMFHV1PSGZPkAv4ALm93px+D
8Mx/nblM2yDyWnBFsLNN6xiAbcDCtCJAa4JONwF0n5SSoErk+blBNmuFG+nkOgz2
aw9HPFT4jmGJRdND0FTXU+d7UoU1kMQxDbwEr1kX/nOLT3Cj+KD909pe3MLu/Yrc
IeuC/BaQa7cqbRncfV/qC4ftirYSWSd2K/iZoJrt34hjCz9X2nIzl3ImhiF026AG
d4odUdzBAh4rg+JowpgqwsE3HGE/PuuvD/kJpgHixwol/K2NgSPrSSuuRp9L2j5m
0hy70sDUbT/oKIKdAgMBAAGjggFfMIIBWzAdBgNVHQ4EFgQUxeeBJ4Hp3it5BqcC
tSJR9b4hne0wgYkGA1UdIwSBgTB/gBTF54EngeneK3kGpwK1IlH1viGd7aFcpFow
WDELMAkGA1UEBhMCRlIxDDAKBgNVBAgMA0lERjEOMAwGA1UEBwwFUGFyaXMxEjAQ
BgNVBAoMCU5vZGVPUENVQTEXMBUGA1UEAwwOTm9kZU9QQ1VBLVRFU1SCCQDxiTlp
UB96bDAMBgNVHRMEBTADAQH/MA4GA1UdDwEB/wQEAwIBBjBfBglghkgBhvhCAQ0E
UhZQU2VsZlNpZ25lZCBDZXJ0aWZpY2F0ZSBnZW5lcmF0ZWQgYnkgTm9kZS1PUENV
QSBDZXJ0aWZpY2F0ZSB1dGlsaXR5IHVzaW5nIG9wZW5zc2wwLwYDVR0RBCgwJoYc
dXJuOm1BYlNpbTpOb2RlLU9QQ1VBLVNlcnZlcoIGbUFiU2ltMA0GCSqGSIb3DQEB
CwUAA4IBAQBL1uYreVwZNi6nky4c4u6KXlZyWieBTR4uBBFe/4E46YIrQZuZh57o
iBiC1LlFV3xG3g7eIH3Qxu4Lm7/pXRtof0mXGLIy0mdbshEC40q0b6OxLOaVCATU
24Bp5x4zn0KTr4CrYaW++A4Pi5XWJyq1i1LIdiwmAVAwcKCuSXvmcvTtNgmbrvAU
3BsgRIcl/k6i0RpWzh6qgv3pgSQy3txWab+Qhq8QEvXLS5ekEm/6g15yT2U8vOXg
YsB1NL3iQNuejHwMcu03niuiKdGCOxq32oWyzUiuB3SFVqpfhqJaEqI/HhIPOwyf
Qujjf2KCWz8uIMsasx32cETlNduPiJDy
-----END CERTIFICATE-----
